; Function Attrs: mustprogress nounwind uwtable
define hidden noundef ptr @_ZN12JVMCIRuntime17get_klass_by_nameEP5KlassP6Symbolb(ptr noundef %0, ptr noundef %1, i1 noundef zeroext %2) local_unnamed_addr #0 align 2 {
  %4 = alloca ptr, align 8
  %5 = alloca %class.constantPoolHandle, align 8
  store ptr %0, ptr %4, align 8
  %6 = tail call align 8 ptr @llvm.threadlocal.address.p0(ptr align 8 @_ZN6Thread12_thr_currentE)
  %7 = load ptr, ptr %6, align 8
  %8 = getelementptr inbounds i8, ptr %7, i64 800
  %9 = load ptr, ptr %8, align 8
  %10 = getelementptr inbounds i8, ptr %9, i64 24
  %11 = load ptr, ptr %10, align 8
  %12 = getelementptr inbounds i8, ptr %9, i64 32
  %13 = load ptr, ptr %12, align 8
  %14 = getelementptr inbounds i8, ptr %9, i64 40
  %15 = load ptr, ptr %14, align 8
  %16 = getelementptr inbounds i8, ptr %9, i64 8
  %17 = load i64, ptr %16, align 8
  call void @llvm.memset.p0.i64(ptr noundef nonnull align 8 dereferenceable(16) %5, i8 0, i64 16, i1 false)
  %18 = call noundef ptr @_ZN12JVMCIRuntime22get_klass_by_name_implERP5KlassRK18constantPoolHandleP6Symbolb(ptr noundef nonnull align 8 dereferenceable(8) %4, ptr noundef nonnull align 8 dereferenceable(16) %5, ptr noundef %1, i1 noundef zeroext %2)
  call void @_ZN18constantPoolHandleD1Ev(ptr noundef nonnull align 8 dereferenceable(16) %5) #15
  %19 = load ptr, ptr %11, align 8
  %.not.i.i.i.i = icmp eq ptr %19, null
  br i1 %.not.i.i.i.i, label %21, label %20

20:                                               ; preds = %3
  call void @_ZN5Arena17set_size_in_bytesEm(ptr noundef nonnull align 8 dereferenceable(48) %9, i64 noundef %17) #15
  call void @_ZN5Chunk9next_chopEPS_(ptr noundef nonnull %11) #15
  br label %21

21:                                               ; preds = %20, %3
  %22 = load ptr, ptr %12, align 8
  %.not8.i.i.i.i = icmp eq ptr %22, %13
  br i1 %.not8.i.i.i.i, label %_ZN12ResourceMarkD2Ev.exit, label %23

23:                                               ; preds = %21
  store ptr %11, ptr %10, align 8
  store ptr %13, ptr %12, align 8
  store ptr %15, ptr %14, align 8
  br label %_ZN12ResourceMarkD2Ev.exit

_ZN12ResourceMarkD2Ev.exit:                       ; preds = %21, %23
  ret ptr %18
}